target datalayout = "e-m:e-p270:32:32-p271:32:32-p272:64:64-i64:64-i128:128-f80:128-n8:16:32:64-S128"
target triple = "x86_64-pc-linux-gnu"

%struct.SDL_WaylandUserdata = type { i32, ptr }
%struct.SDL_WaylandPrimarySelectionSource = type { ptr, ptr, ptr, ptr, %struct.SDL_WaylandUserdata }
%struct.SDL_WaylandPrimarySelectionDevice = type { ptr, ptr, i32, ptr, ptr }

@WAYLAND_wl_proxy_marshal_flags = external global ptr, align 8
@WAYLAND_wl_proxy_get_version = external global ptr, align 8

; Function Attrs: inlinehint nounwind uwtable
define internal void @zwp_primary_selection_device_v1_set_selection(ptr noundef %0, ptr noundef %1, i32 noundef %2) #3 {
  %4 = alloca ptr, align 8
  %5 = alloca ptr, align 8
  %6 = alloca i32, align 4
  store ptr %0, ptr %4, align 8
  store ptr %1, ptr %5, align 8
  store i32 %2, ptr %6, align 4
  %7 = load ptr, ptr @WAYLAND_wl_proxy_marshal_flags, align 8
  %8 = load ptr, ptr %4, align 8
  %9 = load ptr, ptr @WAYLAND_wl_proxy_get_version, align 8
  %10 = load ptr, ptr %4, align 8
  %11 = call i32 %9(ptr noundef %10)
  %12 = load ptr, ptr %5, align 8
  %13 = load i32, ptr %6, align 4
  %14 = call ptr (ptr, i32, ptr, i32, i32, ...) %7(ptr noundef %8, i32 noundef 0, ptr noundef null, i32 noundef %11, i32 noundef 0, ptr noundef %12, i32 noundef %13)
  ret void
}

; Function Attrs: nounwind uwtable
define hidden void @Wayland_primary_selection_device_set_serial(ptr noundef %0, i32 noundef %1) #0 {
  %3 = alloca ptr, align 8
  %4 = alloca i32, align 4
  store ptr %0, ptr %3, align 8
  store i32 %1, ptr %4, align 4
  %5 = load ptr, ptr %3, align 8
  %6 = icmp ne ptr %5, null
  br i1 %6, label %7, label %33

7:                                                ; preds = %2
  %8 = load i32, ptr %4, align 4
  %9 = load ptr, ptr %3, align 8
  %10 = getelementptr inbounds nuw %struct.SDL_WaylandPrimarySelectionDevice, ptr %9, i32 0, i32 2
  store i32 %8, ptr %10, align 8
  %11 = load ptr, ptr %3, align 8
  %12 = getelementptr inbounds nuw %struct.SDL_WaylandPrimarySelectionDevice, ptr %11, i32 0, i32 2
  %13 = load i32, ptr %12, align 8
  %14 = icmp eq i32 %13, 0
  br i1 %14, label %15, label %32

15:                                               ; preds = %7
  %16 = load ptr, ptr %3, align 8
  %17 = getelementptr inbounds nuw %struct.SDL_WaylandPrimarySelectionDevice, ptr %16, i32 0, i32 3
  %18 = load ptr, ptr %17, align 8
  %19 = icmp ne ptr %18, null
  br i1 %19, label %20, label %32

20:                                               ; preds = %15
  %21 = load ptr, ptr %3, align 8
  %22 = getelementptr inbounds nuw %struct.SDL_WaylandPrimarySelectionDevice, ptr %21, i32 0, i32 0
  %23 = load ptr, ptr %22, align 8
  %24 = load ptr, ptr %3, align 8
  %25 = getelementptr inbounds nuw %struct.SDL_WaylandPrimarySelectionDevice, ptr %24, i32 0, i32 3
  %26 = load ptr, ptr %25, align 8
  %27 = getelementptr inbounds nuw %struct.SDL_WaylandPrimarySelectionSource, ptr %26, i32 0, i32 0
  %28 = load ptr, ptr %27, align 8
  %29 = load ptr, ptr %3, align 8
  %30 = getelementptr inbounds nuw %struct.SDL_WaylandPrimarySelectionDevice, ptr %29, i32 0, i32 2
  %31 = load i32, ptr %30, align 8
  call void @zwp_primary_selection_device_v1_set_selection(ptr noundef %23, ptr noundef %28, i32 noundef %31)
  br label %32

32:                                               ; preds = %20, %15, %7
  br label %33

33:                                               ; preds = %32, %2
  ret void
}